target datalayout = "e-m:e-p270:32:32-p271:32:32-p272:64:64-i64:64-i128:128-f80:128-n8:16:32:64-S128"
target triple = "x86_64-pc-linux-gnu"

%"class.icu_77::VTZWriter" = type { ptr }
%"class.icu_77::ConstChar16Ptr" = type { ptr }
%"class.icu_77::UnicodeString" = type { %"class.icu_77::Replaceable", %"union.icu_77::UnicodeString::StackBufferOrFields" }
%"class.icu_77::Replaceable" = type { %"class.icu_77::UObject" }
%"class.icu_77::UObject" = type { ptr }
%"union.icu_77::UnicodeString::StackBufferOrFields" = type { %struct.anon.0, [32 x i8] }
%struct.anon.0 = type { i16, i32, i32, ptr }
%struct.anon = type { i16, [27 x i16] }

@_ZN6icu_77L10ICAL_RDATEE = internal constant [6 x i16] [i16 82, i16 68, i16 65, i16 84, i16 69, i16 0], align 2
@_ZN6icu_77L12ICAL_NEWLINEE = internal constant [3 x i16] [i16 13, i16 10, i16 0], align 2
@_ZTVN6icu_777UObjectE = available_externally unnamed_addr constant { [5 x ptr] } { [5 x ptr] [ptr null, ptr @_ZTIN6icu_777UObjectE, ptr @_ZN6icu_777UObjectD1Ev, ptr @_ZN6icu_777UObjectD0Ev, ptr @_ZNK6icu_777UObject17getDynamicClassIDEv] }, align 8

; Function Attrs: inlinehint mustprogress nounwind uwtable
define linkonce_odr noundef i32 @_ZNK6icu_7713UnicodeString14getShortLengthEv(ptr noundef nonnull align 8 dereferenceable(64) %0) #3 comdat align 2 {
  %2 = alloca ptr, align 8
  store ptr %0, ptr %2, align 8, !tbaa !8
  %3 = load ptr, ptr %2, align 8
  %4 = getelementptr inbounds nuw %"class.icu_77::UnicodeString", ptr %3, i32 0, i32 1
  %5 = getelementptr inbounds nuw %struct.anon.0, ptr %4, i32 0, i32 0
  %6 = load i16, ptr %5, align 8, !tbaa !28
  %7 = sext i16 %6 to i32
  %8 = ashr i32 %7, 5
  ret i32 %8
}

; Function Attrs: inlinehint mustprogress nounwind uwtable
define linkonce_odr noundef signext i8 @_ZNK6icu_7713UnicodeString14hasShortLengthEv(ptr noundef nonnull align 8 dereferenceable(64) %0) #3 comdat align 2 {
  %2 = alloca ptr, align 8
  store ptr %0, ptr %2, align 8, !tbaa !8
  %3 = load ptr, ptr %2, align 8
  %4 = getelementptr inbounds nuw %"class.icu_77::UnicodeString", ptr %3, i32 0, i32 1
  %5 = getelementptr inbounds nuw %struct.anon.0, ptr %4, i32 0, i32 0
  %6 = load i16, ptr %5, align 8, !tbaa !28
  %7 = sext i16 %6 to i32
  %8 = icmp sge i32 %7, 0
  %9 = zext i1 %8 to i8
  ret i8 %9
}

; Function Attrs: inlinehint mustprogress nounwind uwtable
define linkonce_odr noundef ptr @_ZNK6icu_7714ConstChar16Ptr3getEv(ptr noundef nonnull align 8 dereferenceable(8) %0) #3 comdat align 2 {
  %2 = alloca ptr, align 8
  store ptr %0, ptr %2, align 8, !tbaa !16
  %3 = load ptr, ptr %2, align 8
  %4 = getelementptr inbounds nuw %"class.icu_77::ConstChar16Ptr", ptr %3, i32 0, i32 0
  %5 = load ptr, ptr %4, align 8, !tbaa !20
  ret ptr %5
}

; Function Attrs: inlinehint mustprogress uwtable
define linkonce_odr noundef i32 @_ZNK6icu_7713UnicodeString6lengthEv(ptr noundef nonnull align 8 dereferenceable(64) %0) #2 comdat align 2 {
  %2 = alloca ptr, align 8
  store ptr %0, ptr %2, align 8, !tbaa !8
  %3 = load ptr, ptr %2, align 8
  %4 = call noundef signext i8 @_ZNK6icu_7713UnicodeString14hasShortLengthEv(ptr noundef nonnull align 8 dereferenceable(64) %3)
  %5 = icmp ne i8 %4, 0
  br i1 %5, label %6, label %8

6:                                                ; preds = %1
  %7 = call noundef i32 @_ZNK6icu_7713UnicodeString14getShortLengthEv(ptr noundef nonnull align 8 dereferenceable(64) %3)
  br label %12

8:                                                ; preds = %1
  %9 = getelementptr inbounds nuw %"class.icu_77::UnicodeString", ptr %3, i32 0, i32 1
  %10 = getelementptr inbounds nuw %struct.anon.0, ptr %9, i32 0, i32 1
  %11 = load i32, ptr %10, align 4, !tbaa !28
  br label %12

12:                                               ; preds = %8, %6
  %13 = phi i32 [ %7, %6 ], [ %11, %8 ]
  ret i32 %13
}

; Function Attrs: inlinehint mustprogress nounwind uwtable
define linkonce_odr void @_ZN6icu_777UObjectC2Ev(ptr noundef nonnull align 8 dereferenceable(8) %0) unnamed_addr #3 comdat align 2 {
  %2 = alloca ptr, align 8
  store ptr %0, ptr %2, align 8, !tbaa !153
  %3 = load ptr, ptr %2, align 8
  store ptr getelementptr inbounds inrange(-16, 24) ({ [5 x ptr] }, ptr @_ZTVN6icu_777UObjectE, i32 0, i32 0, i32 2), ptr %3, align 8, !tbaa !31
  ret void
}

; Function Attrs: inlinehint mustprogress uwtable
define linkonce_odr noundef ptr @_ZNK6icu_7714ConstChar16PtrcvPKDsEv(ptr noundef nonnull align 8 dereferenceable(8) %0) #2 comdat align 2 {
  %2 = alloca ptr, align 8
  store ptr %0, ptr %2, align 8, !tbaa !16
  %3 = load ptr, ptr %2, align 8
  %4 = call noundef ptr @_ZNK6icu_7714ConstChar16Ptr3getEv(ptr noundef nonnull align 8 dereferenceable(8) %3)
  ret ptr %4
}

; Function Attrs: inlinehint mustprogress uwtable
define linkonce_odr noundef nonnull align 8 dereferenceable(64) ptr @_ZN6icu_7713UnicodeString6appendERKS0_(ptr noundef nonnull align 8 dereferenceable(64) %0, ptr noundef nonnull align 8 dereferenceable(64) %1) #2 comdat align 2 {
  %3 = alloca ptr, align 8
  %4 = alloca ptr, align 8
  store ptr %0, ptr %3, align 8, !tbaa !8
  store ptr %1, ptr %4, align 8, !tbaa !8
  %5 = load ptr, ptr %3, align 8
  %6 = load ptr, ptr %4, align 8, !tbaa !8
  %7 = load ptr, ptr %4, align 8, !tbaa !8
  %8 = call noundef i32 @_ZNK6icu_7713UnicodeString6lengthEv(ptr noundef nonnull align 8 dereferenceable(64) %7)
  %9 = call noundef nonnull align 8 dereferenceable(64) ptr @_ZN6icu_7713UnicodeString8doAppendERKS0_ii(ptr noundef nonnull align 8 dereferenceable(64) %5, ptr noundef nonnull align 8 dereferenceable(64) %6, i32 noundef 0, i32 noundef %8)
  ret ptr %9
}

; Function Attrs: inlinehint mustprogress nounwind uwtable
define linkonce_odr void @_ZN6icu_7711ReplaceableC2Ev(ptr noundef nonnull align 8 dereferenceable(8) %0) unnamed_addr #3 comdat align 2 {
  %2 = alloca ptr, align 8
  store ptr %0, ptr %2, align 8, !tbaa !151
  %3 = load ptr, ptr %2, align 8
  call void @_ZN6icu_777UObjectC2Ev(ptr noundef nonnull align 8 dereferenceable(8) %3) #11
  store ptr getelementptr inbounds inrange(-16, 88) ({ [13 x ptr] }, ptr @_ZTVN6icu_7711ReplaceableE, i32 0, i32 0, i32 2), ptr %3, align 8, !tbaa !31
  ret void
}

; Function Attrs: inlinehint mustprogress uwtable
define linkonce_odr noundef nonnull align 8 dereferenceable(64) ptr @_ZN6icu_7713UnicodeString6appendEDs(ptr noundef nonnull align 8 dereferenceable(64) %0, i16 noundef zeroext %1) #2 comdat align 2 {
  %3 = alloca ptr, align 8
  %4 = alloca i16, align 2
  store ptr %0, ptr %3, align 8, !tbaa !8
  store i16 %1, ptr %4, align 2, !tbaa !12
  %5 = load ptr, ptr %3, align 8
  %6 = call noundef nonnull align 8 dereferenceable(64) ptr @_ZN6icu_7713UnicodeString8doAppendEPKDsii(ptr noundef nonnull align 8 dereferenceable(64) %5, ptr noundef %4, i32 noundef 0, i32 noundef 1)
  ret ptr %6
}

; Function Attrs: inlinehint mustprogress nounwind uwtable
define linkonce_odr void @_ZN6icu_7714ConstChar16PtrD2Ev(ptr noundef nonnull align 8 dereferenceable(8) %0) unnamed_addr #3 comdat align 2 {
  %2 = alloca ptr, align 8
  store ptr %0, ptr %2, align 8, !tbaa !16
  %3 = load ptr, ptr %2, align 8
  %4 = getelementptr inbounds nuw %"class.icu_77::ConstChar16Ptr", ptr %3, i32 0, i32 0
  %5 = load ptr, ptr %4, align 8, !tbaa !20
  call void asm sideeffect "", "rm,~{memory},~{dirflag},~{fpsr},~{flags}"(ptr %5) #11, !srcloc !22
  ret void
}

; Function Attrs: inlinehint mustprogress uwtable
define linkonce_odr noundef nonnull align 8 dereferenceable(64) ptr @_ZN6icu_7713UnicodeString6appendENS_14ConstChar16PtrEi(ptr noundef nonnull align 8 dereferenceable(64) %0, ptr noundef %1, i32 noundef %2) #2 comdat align 2 {
  %4 = alloca ptr, align 8
  %5 = alloca ptr, align 8
  %6 = alloca i32, align 4
  store ptr %0, ptr %4, align 8, !tbaa !8
  store ptr %1, ptr %5, align 8, !tbaa !16
  store i32 %2, ptr %6, align 4, !tbaa !18
  %7 = load ptr, ptr %4, align 8
  %8 = call noundef ptr @_ZNK6icu_7714ConstChar16PtrcvPKDsEv(ptr noundef nonnull align 8 dereferenceable(8) %1)
  %9 = load i32, ptr %6, align 4, !tbaa !18
  %10 = call noundef nonnull align 8 dereferenceable(64) ptr @_ZN6icu_7713UnicodeString8doAppendEPKDsii(ptr noundef nonnull align 8 dereferenceable(64) %7, ptr noundef %8, i32 noundef 0, i32 noundef %9)
  ret ptr %10
}

; Function Attrs: inlinehint mustprogress nounwind uwtable
define linkonce_odr void @_ZN6icu_7714ConstChar16PtrC2EPKDs(ptr noundef nonnull align 8 dereferenceable(8) %0, ptr noundef %1) unnamed_addr #3 comdat align 2 {
  %3 = alloca ptr, align 8
  %4 = alloca ptr, align 8
  store ptr %0, ptr %3, align 8, !tbaa !16
  store ptr %1, ptr %4, align 8, !tbaa !14
  %5 = load ptr, ptr %3, align 8
  %6 = getelementptr inbounds nuw %"class.icu_77::ConstChar16Ptr", ptr %5, i32 0, i32 0
  %7 = load ptr, ptr %4, align 8, !tbaa !14
  store ptr %7, ptr %6, align 8, !tbaa !20
  ret void
}

; Function Attrs: mustprogress uwtable
define void @_ZN6icu_779VTZWriter5writeERKNS_13UnicodeStringE(ptr noundef nonnull align 8 dereferenceable(8) %0, ptr noundef nonnull align 8 dereferenceable(64) %1) #1 align 2 {
  %3 = alloca ptr, align 8
  %4 = alloca ptr, align 8
  store ptr %0, ptr %3, align 8, !tbaa !3
  store ptr %1, ptr %4, align 8, !tbaa !8
  %5 = load ptr, ptr %3, align 8
  %6 = getelementptr inbounds nuw %"class.icu_77::VTZWriter", ptr %5, i32 0, i32 0
  %7 = load ptr, ptr %6, align 8, !tbaa !10
  %8 = load ptr, ptr %4, align 8, !tbaa !8
  %9 = call noundef nonnull align 8 dereferenceable(64) ptr @_ZN6icu_7713UnicodeString6appendERKS0_(ptr noundef nonnull align 8 dereferenceable(64) %7, ptr noundef nonnull align 8 dereferenceable(64) %8)
  ret void
}

; Function Attrs: inlinehint mustprogress uwtable
define linkonce_odr void @_ZN6icu_7713UnicodeStringC2Ev(ptr noundef nonnull align 8 dereferenceable(64) %0) unnamed_addr #2 comdat align 2 {
  %2 = alloca ptr, align 8
  store ptr %0, ptr %2, align 8, !tbaa !8
  %3 = load ptr, ptr %2, align 8
  call void @_ZN6icu_7711ReplaceableC2Ev(ptr noundef nonnull align 8 dereferenceable(8) %3)
  store ptr getelementptr inbounds inrange(-16, 88) ({ [13 x ptr] }, ptr @_ZTVN6icu_7713UnicodeStringE, i32 0, i32 0, i32 2), ptr %3, align 8, !tbaa !31
  %4 = getelementptr inbounds nuw %"class.icu_77::UnicodeString", ptr %3, i32 0, i32 1
  %5 = getelementptr inbounds nuw %struct.anon, ptr %4, i32 0, i32 0
  store i16 2, ptr %5, align 8, !tbaa !28
  ret void
}

; Function Attrs: mustprogress uwtable
define void @_ZN6icu_779VTZWriter5writeEDs(ptr noundef nonnull align 8 dereferenceable(8) %0, i16 noundef zeroext %1) #1 align 2 {
  %3 = alloca ptr, align 8
  %4 = alloca i16, align 2
  store ptr %0, ptr %3, align 8, !tbaa !3
  store i16 %1, ptr %4, align 2, !tbaa !12
  %5 = load ptr, ptr %3, align 8
  %6 = getelementptr inbounds nuw %"class.icu_77::VTZWriter", ptr %5, i32 0, i32 0
  %7 = load ptr, ptr %6, align 8, !tbaa !10
  %8 = load i16, ptr %4, align 2, !tbaa !12
  %9 = call noundef nonnull align 8 dereferenceable(64) ptr @_ZN6icu_7713UnicodeString6appendEDs(ptr noundef nonnull align 8 dereferenceable(64) %7, i16 noundef zeroext %8)
  ret void
}

; Function Attrs: mustprogress uwtable
define void @_ZN6icu_779VTZWriter5writeEPKDs(ptr noundef nonnull align 8 dereferenceable(8) %0, ptr noundef %1) #1 align 2 personality ptr @__gxx_personality_v0 {
  %3 = alloca ptr, align 8
  %4 = alloca ptr, align 8
  %5 = alloca %"class.icu_77::ConstChar16Ptr", align 8
  %6 = alloca ptr, align 8
  %7 = alloca i32, align 4
  store ptr %0, ptr %3, align 8, !tbaa !3
  store ptr %1, ptr %4, align 8, !tbaa !14
  %8 = load ptr, ptr %3, align 8
  %9 = getelementptr inbounds nuw %"class.icu_77::VTZWriter", ptr %8, i32 0, i32 0
  %10 = load ptr, ptr %9, align 8, !tbaa !10
  %11 = load ptr, ptr %4, align 8, !tbaa !14
  call void @_ZN6icu_7714ConstChar16PtrC2EPKDs(ptr noundef nonnull align 8 dereferenceable(8) %5, ptr noundef %11)
  %12 = invoke noundef nonnull align 8 dereferenceable(64) ptr @_ZN6icu_7713UnicodeString6appendENS_14ConstChar16PtrEi(ptr noundef nonnull align 8 dereferenceable(64) %10, ptr noundef %5, i32 noundef -1)
          to label %13 unwind label %14

13:                                               ; preds = %2
  call void @_ZN6icu_7714ConstChar16PtrD2Ev(ptr noundef nonnull align 8 dereferenceable(8) %5) #11
  ret void

14:                                               ; preds = %2
  %15 = landingpad { ptr, i32 }
          cleanup
  %16 = extractvalue { ptr, i32 } %15, 0
  store ptr %16, ptr %6, align 8
  %17 = extractvalue { ptr, i32 } %15, 1
  store i32 %17, ptr %7, align 4
  call void @_ZN6icu_7714ConstChar16PtrD2Ev(ptr noundef nonnull align 8 dereferenceable(8) %5) #11
  br label %18

18:                                               ; preds = %14
  %19 = load ptr, ptr %6, align 8
  %20 = load i32, ptr %7, align 4
  %21 = insertvalue { ptr, i32 } poison, ptr %19, 0
  %22 = insertvalue { ptr, i32 } %21, i32 %20, 1
  resume { ptr, i32 } %22
}

; Function Attrs: inlinehint mustprogress nounwind uwtable
define internal noundef signext i8 @_ZL9U_FAILURE10UErrorCode(i32 noundef %0) #3 {
  %2 = alloca i32, align 4
  store i32 %0, ptr %2, align 4, !tbaa !45
  %3 = load i32, ptr %2, align 4, !tbaa !45
  %4 = icmp sgt i32 %3, 0
  %5 = zext i1 %4 to i8
  ret i8 %5
}

; Function Attrs: mustprogress uwtable
define void @_ZNK6icu_779VTimeZone20writeZonePropsByTimeERNS_9VTZWriterEaRKNS_13UnicodeStringEiidaR10UErrorCode(ptr noundef nonnull align 8 dereferenceable(288) %0, ptr noundef nonnull align 8 dereferenceable(8) %1, i8 noundef signext %2, ptr noundef nonnull align 8 dereferenceable(64) %3, i32 noundef %4, i32 noundef %5, double noundef %6, i8 noundef signext %7, ptr noundef nonnull align 4 dereferenceable(4) %8) #1 align 2 personality ptr @__gxx_personality_v0 {
  %10 = alloca ptr, align 8
  %11 = alloca ptr, align 8
  %12 = alloca i8, align 1
  %13 = alloca ptr, align 8
  %14 = alloca i32, align 4
  %15 = alloca i32, align 4
  %16 = alloca double, align 8
  %17 = alloca i8, align 1
  %18 = alloca ptr, align 8
  %19 = alloca %"class.icu_77::UnicodeString", align 8
  %20 = alloca ptr, align 8
  %21 = alloca i32, align 4
  %22 = alloca i32, align 4
  store ptr %0, ptr %10, align 8, !tbaa !29
  store ptr %1, ptr %11, align 8, !tbaa !3
  store i8 %2, ptr %12, align 1, !tbaa !28
  store ptr %3, ptr %13, align 8, !tbaa !8
  store i32 %4, ptr %14, align 4, !tbaa !18
  store i32 %5, ptr %15, align 4, !tbaa !18
  store double %6, ptr %16, align 8, !tbaa !77
  store i8 %7, ptr %17, align 1, !tbaa !28
  store ptr %8, ptr %18, align 8, !tbaa !55
  %23 = load ptr, ptr %10, align 8
  %24 = load ptr, ptr %18, align 8, !tbaa !55
  %25 = load i32, ptr %24, align 4, !tbaa !45
  %26 = call noundef signext i8 @_ZL9U_FAILURE10UErrorCode(i32 noundef %25)
  %27 = icmp ne i8 %26, 0
  br i1 %27, label %28, label %29

28:                                               ; preds = %9
  br label %82

29:                                               ; preds = %9
  %30 = load ptr, ptr %11, align 8, !tbaa !3
  %31 = load i8, ptr %12, align 1, !tbaa !28
  %32 = load ptr, ptr %13, align 8, !tbaa !8
  %33 = load i32, ptr %14, align 4, !tbaa !18
  %34 = load i32, ptr %15, align 4, !tbaa !18
  %35 = load double, ptr %16, align 8, !tbaa !77
  %36 = load ptr, ptr %18, align 8, !tbaa !55
  call void @_ZNK6icu_779VTimeZone14beginZonePropsERNS_9VTZWriterEaRKNS_13UnicodeStringEiidR10UErrorCode(ptr noundef nonnull align 8 dereferenceable(288) %23, ptr noundef nonnull align 8 dereferenceable(8) %30, i8 noundef signext %31, ptr noundef nonnull align 8 dereferenceable(64) %32, i32 noundef %33, i32 noundef %34, double noundef %35, ptr noundef nonnull align 4 dereferenceable(4) %36)
  %37 = load ptr, ptr %18, align 8, !tbaa !55
  %38 = load i32, ptr %37, align 4, !tbaa !45
  %39 = call noundef signext i8 @_ZL9U_FAILURE10UErrorCode(i32 noundef %38)
  %40 = icmp ne i8 %39, 0
  br i1 %40, label %41, label %42

41:                                               ; preds = %29
  br label %82

42:                                               ; preds = %29
  %43 = load i8, ptr %17, align 1, !tbaa !28
  %44 = icmp ne i8 %43, 0
  br i1 %44, label %45, label %73

45:                                               ; preds = %42
  %46 = load ptr, ptr %11, align 8, !tbaa !3
  call void @_ZN6icu_779VTZWriter5writeEPKDs(ptr noundef nonnull align 8 dereferenceable(8) %46, ptr noundef @_ZN6icu_77L10ICAL_RDATEE)
  %47 = load ptr, ptr %11, align 8, !tbaa !3
  call void @_ZN6icu_779VTZWriter5writeEDs(ptr noundef nonnull align 8 dereferenceable(8) %47, i16 noundef zeroext 58)
  call void @llvm.lifetime.start.p0(i64 64, ptr %19) #11
  call void @_ZN6icu_7713UnicodeStringC2Ev(ptr noundef nonnull align 8 dereferenceable(64) %19)
  %48 = load ptr, ptr %11, align 8, !tbaa !3
  %49 = load double, ptr %16, align 8, !tbaa !77
  %50 = load i32, ptr %14, align 4, !tbaa !18
  %51 = sitofp i32 %50 to double
  %52 = fadd double %49, %51
  %53 = load ptr, ptr %18, align 8, !tbaa !55
  %54 = invoke noundef nonnull align 8 dereferenceable(64) ptr @_ZN6icu_77L17getDateTimeStringEdRNS_13UnicodeStringER10UErrorCode(double noundef %52, ptr noundef nonnull align 8 dereferenceable(64) %19, ptr noundef nonnull align 4 dereferenceable(4) %53)
          to label %55 unwind label %65

55:                                               ; preds = %45
  invoke void @_ZN6icu_779VTZWriter5writeERKNS_13UnicodeStringE(ptr noundef nonnull align 8 dereferenceable(8) %48, ptr noundef nonnull align 8 dereferenceable(64) %54)
          to label %56 unwind label %65

56:                                               ; preds = %55
  %57 = load ptr, ptr %11, align 8, !tbaa !3
  invoke void @_ZN6icu_779VTZWriter5writeEPKDs(ptr noundef nonnull align 8 dereferenceable(8) %57, ptr noundef @_ZN6icu_77L12ICAL_NEWLINEE)
          to label %58 unwind label %65

58:                                               ; preds = %56
  %59 = load ptr, ptr %18, align 8, !tbaa !55
  %60 = load i32, ptr %59, align 4, !tbaa !45
  %61 = invoke noundef signext i8 @_ZL9U_FAILURE10UErrorCode(i32 noundef %60)
          to label %62 unwind label %65

62:                                               ; preds = %58
  %63 = icmp ne i8 %61, 0
  br i1 %63, label %64, label %69

64:                                               ; preds = %62
  store i32 1, ptr %22, align 4
  br label %70

65:                                               ; preds = %58, %56, %55, %45
  %66 = landingpad { ptr, i32 }
          cleanup
  %67 = extractvalue { ptr, i32 } %66, 0
  store ptr %67, ptr %20, align 8
  %68 = extractvalue { ptr, i32 } %66, 1
  store i32 %68, ptr %21, align 4
  call void @_ZN6icu_7713UnicodeStringD1Ev(ptr noundef nonnull align 8 dereferenceable(64) %19) #11
  call void @llvm.lifetime.end.p0(i64 64, ptr %19) #11
  br label %83

69:                                               ; preds = %62
  store i32 0, ptr %22, align 4
  br label %70

70:                                               ; preds = %69, %64
  call void @_ZN6icu_7713UnicodeStringD1Ev(ptr noundef nonnull align 8 dereferenceable(64) %19) #11
  call void @llvm.lifetime.end.p0(i64 64, ptr %19) #11
  %71 = load i32, ptr %22, align 4
  switch i32 %71, label %88 [
    i32 0, label %72
    i32 1, label %82
  ]

72:                                               ; preds = %70
  br label %73

73:                                               ; preds = %72, %42
  %74 = load ptr, ptr %11, align 8, !tbaa !3
  %75 = load i8, ptr %12, align 1, !tbaa !28
  %76 = load ptr, ptr %18, align 8, !tbaa !55
  call void @_ZNK6icu_779VTimeZone12endZonePropsERNS_9VTZWriterEaR10UErrorCode(ptr noundef nonnull align 8 dereferenceable(288) %23, ptr noundef nonnull align 8 dereferenceable(8) %74, i8 noundef signext %75, ptr noundef nonnull align 4 dereferenceable(4) %76)
  %77 = load ptr, ptr %18, align 8, !tbaa !55
  %78 = load i32, ptr %77, align 4, !tbaa !45
  %79 = call noundef signext i8 @_ZL9U_FAILURE10UErrorCode(i32 noundef %78)
  %80 = icmp ne i8 %79, 0
  br i1 %80, label %81, label %82

81:                                               ; preds = %73
  br label %82

82:                                               ; preds = %28, %41, %70, %81, %73
  ret void

83:                                               ; preds = %65
  %84 = load ptr, ptr %20, align 8
  %85 = load i32, ptr %21, align 4
  %86 = insertvalue { ptr, i32 } poison, ptr %84, 0
  %87 = insertvalue { ptr, i32 } %86, i32 %85, 1
  resume { ptr, i32 } %87

88:                                               ; preds = %70
  unreachable
}