; Function Attrs: mustprogress uwtable
define void @_ZNK6icu_779VTimeZone20writeZonePropsByTimeERNS_9VTZWriterEaRKNS_13UnicodeStringEiidaR10UErrorCode(ptr noundef nonnull readnone align 8 captures(none) dereferenceable(288) %0, ptr noundef nonnull readonly align 8 captures(none) dereferenceable(8) %1, i8 noundef signext %2, ptr noundef nonnull align 8 dereferenceable(64) %3, i32 noundef %4, i32 noundef %5, double noundef %6, i8 noundef signext %7, ptr noundef nonnull align 4 dereferenceable(4) %8) local_unnamed_addr #2 align 2 personality ptr @__gxx_personality_v0 {
  %10 = alloca i16, align 2
  %11 = alloca %"class.icu_77::UnicodeString", align 8
  %12 = load i32, ptr %8, align 4, !tbaa !31
  %13 = icmp slt i32 %12, 1
  br i1 %13, label %14, label %49

14:                                               ; preds = %9
  tail call void @_ZNK6icu_779VTimeZone14beginZonePropsERNS_9VTZWriterEaRKNS_13UnicodeStringEiidR10UErrorCode(ptr nonnull align 8 poison, ptr noundef nonnull align 8 dereferenceable(8) %1, i8 noundef signext %2, ptr noundef nonnull align 8 dereferenceable(64) %3, i32 noundef %4, i32 noundef %5, double noundef %6, ptr noundef nonnull align 4 dereferenceable(4) %8)
  %15 = load i32, ptr %8, align 4, !tbaa !31
  %16 = icmp slt i32 %15, 1
  br i1 %16, label %17, label %49

17:                                               ; preds = %14
  %.not26 = icmp eq i8 %7, 0
  br i1 %.not26, label %48, label %18

18:                                               ; preds = %17
  %19 = load ptr, ptr %1, align 8, !tbaa !3
  %20 = invoke noundef nonnull align 8 dereferenceable(64) ptr @_ZN6icu_7713UnicodeString8doAppendEPKDsii(ptr noundef nonnull align 8 dereferenceable(64) %19, ptr noundef nonnull @_ZN6icu_77L10ICAL_RDATEE, i32 noundef 0, i32 noundef -1)
          to label %_ZN6icu_779VTZWriter5writeEPKDs.exit unwind label %21

common.resume:                                    ; preds = %.body, %21
  %common.resume.op = phi { ptr, i32 } [ %22, %21 ], [ %eh.lpad-body, %.body ]
  resume { ptr, i32 } %common.resume.op

21:                                               ; preds = %18
  %22 = landingpad { ptr, i32 }
          cleanup
  tail call void asm sideeffect "", "rm,~{memory},~{dirflag},~{fpsr},~{flags}"(ptr nonnull @_ZN6icu_77L10ICAL_RDATEE) #16, !srcloc !12
  br label %common.resume

_ZN6icu_779VTZWriter5writeEPKDs.exit:             ; preds = %18
  tail call void asm sideeffect "", "rm,~{memory},~{dirflag},~{fpsr},~{flags}"(ptr nonnull @_ZN6icu_77L10ICAL_RDATEE) #16, !srcloc !12
  %23 = load ptr, ptr %1, align 8, !tbaa !3
  call void @llvm.lifetime.start.p0(i64 2, ptr nonnull %10)
  store i16 58, ptr %10, align 2, !tbaa !10
  %24 = call noundef nonnull align 8 dereferenceable(64) ptr @_ZN6icu_7713UnicodeString8doAppendEPKDsii(ptr noundef nonnull align 8 dereferenceable(64) %23, ptr noundef nonnull %10, i32 noundef 0, i32 noundef 1)
  call void @llvm.lifetime.end.p0(i64 2, ptr nonnull %10)
  call void @llvm.lifetime.start.p0(i64 64, ptr nonnull %11) #16
  store ptr getelementptr inbounds nuw inrange(-16, 88) (i8, ptr @_ZTVN6icu_7713UnicodeStringE, i64 16), ptr %11, align 8, !tbaa !17
  %25 = getelementptr inbounds nuw i8, ptr %11, i64 8
  store i16 2, ptr %25, align 8, !tbaa !9
  %26 = sitofp i32 %4 to double
  %27 = fadd double %6, %26
  %28 = invoke fastcc noundef nonnull align 8 dereferenceable(64) ptr @_ZN6icu_77L17getDateTimeStringEdRNS_13UnicodeStringER10UErrorCode(double noundef %27, ptr noundef nonnull align 8 dereferenceable(64) %11, ptr noundef nonnull align 4 dereferenceable(4) %8)
          to label %29 unwind label %46

29:                                               ; preds = %_ZN6icu_779VTZWriter5writeEPKDs.exit
  %30 = load ptr, ptr %1, align 8, !tbaa !3
  %31 = load i16, ptr %25, align 8, !tbaa !9
  %32 = icmp slt i16 %31, 0
  %33 = ashr i16 %31, 5
  %34 = sext i16 %33 to i32
  %35 = getelementptr inbounds nuw i8, ptr %11, i64 12
  %36 = load i32, ptr %35, align 4
  %37 = select i1 %32, i32 %36, i32 %34
  %38 = invoke noundef nonnull align 8 dereferenceable(64) ptr @_ZN6icu_7713UnicodeString8doAppendERKS0_ii(ptr noundef nonnull align 8 dereferenceable(64) %30, ptr noundef nonnull align 8 dereferenceable(64) %11, i32 noundef 0, i32 noundef %37)
          to label %_ZN6icu_779VTZWriter5writeERKNS_13UnicodeStringE.exit unwind label %46

_ZN6icu_779VTZWriter5writeERKNS_13UnicodeStringE.exit: ; preds = %29
  %39 = load ptr, ptr %1, align 8, !tbaa !3
  %40 = invoke noundef nonnull align 8 dereferenceable(64) ptr @_ZN6icu_7713UnicodeString8doAppendEPKDsii(ptr noundef nonnull align 8 dereferenceable(64) %39, ptr noundef nonnull @_ZN6icu_77L12ICAL_NEWLINEE, i32 noundef 0, i32 noundef -1)
          to label %43 unwind label %41

41:                                               ; preds = %_ZN6icu_779VTZWriter5writeERKNS_13UnicodeStringE.exit
  %42 = landingpad { ptr, i32 }
          cleanup
  call void asm sideeffect "", "rm,~{memory},~{dirflag},~{fpsr},~{flags}"(ptr nonnull @_ZN6icu_77L12ICAL_NEWLINEE) #16, !srcloc !12
  br label %.body

43:                                               ; preds = %_ZN6icu_779VTZWriter5writeERKNS_13UnicodeStringE.exit
  call void asm sideeffect "", "rm,~{memory},~{dirflag},~{fpsr},~{flags}"(ptr nonnull @_ZN6icu_77L12ICAL_NEWLINEE) #16, !srcloc !12
  %44 = load i32, ptr %8, align 4, !tbaa !31
  %45 = icmp slt i32 %44, 1
  call void @_ZN6icu_7713UnicodeStringD1Ev(ptr noundef nonnull align 8 dereferenceable(64) %11) #16
  call void @llvm.lifetime.end.p0(i64 64, ptr nonnull %11) #16
  br i1 %45, label %48, label %49

46:                                               ; preds = %29, %_ZN6icu_779VTZWriter5writeEPKDs.exit
  %47 = landingpad { ptr, i32 }
          cleanup
  br label %.body

.body:                                            ; preds = %41, %46
  %eh.lpad-body = phi { ptr, i32 } [ %47, %46 ], [ %42, %41 ]
  call void @_ZN6icu_7713UnicodeStringD1Ev(ptr noundef nonnull align 8 dereferenceable(64) %11) #16
  call void @llvm.lifetime.end.p0(i64 64, ptr nonnull %11) #16
  br label %common.resume

48:                                               ; preds = %43, %17
  call void @_ZNK6icu_779VTimeZone12endZonePropsERNS_9VTZWriterEaR10UErrorCode(ptr nonnull align 8 poison, ptr noundef nonnull align 8 dereferenceable(8) %1, i8 noundef signext %2, ptr noundef nonnull align 4 dereferenceable(4) %8)
  br label %49

49:                                               ; preds = %43, %48, %14, %9
  ret void
}